; Function Attrs: nounwind uwtable
define ptr @l_Lean_Elab_Tactic_GuardMsgs_WhitespaceMode_apply(i8 noundef zeroext %0, ptr noundef %1) local_unnamed_addr #0 {
  switch i8 %0, label %16 [
    i8 0, label %3
    i8 1, label %12
  ]

3:                                                ; preds = %2
  %4 = ptrtoint ptr %1 to i64
  %5 = and i64 %4, 1
  %.not = icmp eq i64 %5, 0
  br i1 %.not, label %6, label %lean_inc.exit

6:                                                ; preds = %3
  %.val.i = load i32, ptr %1, align 4, !tbaa !8
  %7 = icmp sgt i32 %.val.i, 0
  br i1 %7, label %8, label %10, !prof !13

8:                                                ; preds = %6
  %9 = add nuw i32 %.val.i, 1
  store i32 %9, ptr %1, align 4, !tbaa !8
  br label %lean_inc.exit

10:                                               ; preds = %6
  %.not.i = icmp eq i32 %.val.i, 0
  br i1 %.not.i, label %lean_inc.exit, label %11

11:                                               ; preds = %10
  tail call void @lean_inc_ref_cold(ptr noundef nonnull %1) #7
  br label %lean_inc.exit

12:                                               ; preds = %2
  %13 = load ptr, ptr @l___private_Lean_Elab_GuardMsgs_0__Lean_Elab_Tactic_GuardMsgs_messageToStringWithoutPos___lambda__2___closed__2, align 8, !tbaa !4
  %14 = load ptr, ptr @l___private_Lean_Elab_GuardMsgs_0__Lean_Elab_Tactic_GuardMsgs_messageToStringWithoutPos___lambda__4___closed__1, align 8, !tbaa !4
  %15 = tail call ptr @l_String_replace(ptr noundef %1, ptr noundef %13, ptr noundef %14) #7
  br label %lean_inc.exit

16:                                               ; preds = %2
  %17 = tail call ptr @l_String_splitAux___at_Lean_Elab_Tactic_GuardMsgs_WhitespaceMode_apply___spec__2(ptr noundef %1, ptr noundef nonnull inttoptr (i64 1 to ptr), ptr noundef nonnull inttoptr (i64 1 to ptr), ptr noundef nonnull inttoptr (i64 1 to ptr))
  %18 = tail call ptr @l_List_filterTR_loop___at_Lean_Elab_Tactic_GuardMsgs_WhitespaceMode_apply___spec__3(ptr noundef %17, ptr noundef nonnull inttoptr (i64 1 to ptr))
  %19 = load ptr, ptr @l___private_Lean_Elab_GuardMsgs_0__Lean_Elab_Tactic_GuardMsgs_messageToStringWithoutPos___lambda__4___closed__1, align 8, !tbaa !4
  %20 = tail call ptr @l_String_intercalate(ptr noundef %19, ptr noundef %18) #7
  br label %lean_inc.exit

lean_inc.exit:                                    ; preds = %3, %8, %10, %11, %16, %12
  %.0 = phi ptr [ %20, %16 ], [ %15, %12 ], [ %1, %11 ], [ %1, %10 ], [ %1, %8 ], [ %1, %3 ]
  ret ptr %.0
}